; Function Attrs: nounwind uwtable
define range(i32 -1, 1) i32 @H5Arename(i64 noundef %0, ptr noundef %1, ptr noundef %2) local_unnamed_addr #0 {
  %4 = load i8, ptr @H5_libinit_g, align 1
  %5 = trunc i8 %4 to i1
  %6 = load i8, ptr @H5_libterm_g, align 1
  %7 = trunc i8 %6 to i1
  %8 = select i1 %5, i1 true, i1 %7
  br i1 %8, label %16, label %9

9:                                                ; preds = %3
  %10 = tail call i32 @H5_init_library() #4
  %11 = icmp slt i32 %10, 0
  br i1 %11, label %12, label %16

12:                                               ; preds = %9
  %13 = load i64, ptr @H5E_FUNC_g, align 8
  %14 = load i64, ptr @H5E_CANTINIT_g, align 8
  %15 = tail call i32 (ptr, ptr, i32, i64, i64, ptr, ...) @H5E_printf_stack(ptr noundef nonnull @.str, ptr noundef nonnull @__func__.H5Arename, i32 noundef 1629, i64 noundef %13, i64 noundef %14, ptr noundef nonnull @.str.1) #4
  br label %.thread18

16:                                               ; preds = %9, %3
  %17 = tail call i32 @H5CX_push() #4
  %18 = icmp slt i32 %17, 0
  br i1 %18, label %19, label %23

19:                                               ; preds = %16
  %20 = load i64, ptr @H5E_FUNC_g, align 8
  %21 = load i64, ptr @H5E_CANTSET_g, align 8
  %22 = tail call i32 (ptr, ptr, i32, i64, i64, ptr, ...) @H5E_printf_stack(ptr noundef nonnull @.str, ptr noundef nonnull @__func__.H5Arename, i32 noundef 1629, i64 noundef %20, i64 noundef %21, ptr noundef nonnull @.str.2) #4
  br label %.thread18

23:                                               ; preds = %16
  %24 = tail call i32 @H5E_clear_stack() #4
  %25 = tail call fastcc i32 @H5A__rename_api_common(i64 noundef %0, ptr noundef %1, ptr noundef %2, ptr noundef null, ptr noundef null)
  %26 = icmp slt i32 %25, 0
  br i1 %26, label %.thread23, label %31

.thread23:                                        ; preds = %23
  %27 = load i64, ptr @H5E_ATTR_g, align 8
  %28 = load i64, ptr @H5E_CANTRENAME_g, align 8
  %29 = tail call i32 (ptr, ptr, i32, i64, i64, ptr, ...) @H5E_printf_stack(ptr noundef nonnull @.str, ptr noundef nonnull @__func__.H5Arename, i32 noundef 1633, i64 noundef %27, i64 noundef %28, ptr noundef nonnull @.str.57) #4
  %30 = tail call i32 @H5CX_pop(i1 noundef zeroext true) #4
  br label %.thread18

31:                                               ; preds = %23
  %32 = tail call i32 @H5CX_pop(i1 noundef zeroext true) #4
  br label %34

.thread18:                                        ; preds = %19, %12, %.thread23
  %33 = tail call i32 @H5E_dump_api_stack() #4
  br label %34

34:                                               ; preds = %31, %.thread18
  %.091321 = phi i32 [ -1, %.thread18 ], [ 0, %31 ]
  ret i32 %.091321
}